target datalayout = "e-m:e-p270:32:32-p271:32:32-p272:64:64-i64:64-i128:128-f80:128-n8:16:32:64-S128"
target triple = "x86_64-pc-linux-gnu"

%union.pthread_mutex_t = type { %struct.__pthread_mutex_s }
%struct.__pthread_mutex_s = type { i32, i32, i32, i32, i32, i16, i16, %struct.__pthread_internal_list }
%struct.__pthread_internal_list = type { ptr, ptr }
%struct.timeval = type { i64, i64 }
%struct.threadpool_list = type { ptr, ptr }
%struct.threadpool_tag = type { %union.pthread_mutex_t, %union.pthread_cond_t, %union.pthread_attr_t, %union.pthread_cond_t, %union.pthread_cond_t, %union.pthread_cond_t, i32, i32, i32, i32, i32, i32, i32, ptr, ptr, ptr, ptr }
%union.pthread_attr_t = type { i64, [48 x i8] }
%union.pthread_cond_t = type { %struct.__pthread_cond_s }
%struct.__pthread_cond_s = type { %union.__atomic_wide_counter, %union.__atomic_wide_counter, [2 x i32], [2 x i32], i32, i32, [2 x i32] }
%union.__atomic_wide_counter = type { i64 }
%struct.task_desc = type { ptr, ptr, %struct.timeval, ptr, ptr, ptr }

@pools_lock = internal global %union.pthread_mutex_t zeroinitializer, align 8
@pools = internal global ptr null, align 8
@.str.18 = private unnamed_addr constant [19 x i8] c"Mutex lock failed\0A\00", align 1
@.str.19 = private unnamed_addr constant [21 x i8] c"Mutex unlock failed\0A\00", align 1

; Function Attrs: nounwind uwtable
define internal void @remove_frompools(ptr noundef %0) #0 {
  %2 = alloca ptr, align 8
  %3 = alloca ptr, align 8
  %4 = alloca ptr, align 8
  %5 = alloca ptr, align 8
  %6 = alloca ptr, align 8
  store ptr %0, ptr %2, align 8
  %7 = call i32 @pthread_mutex_lock(ptr noundef @pools_lock) #8
  store ptr null, ptr %4, align 8
  %8 = load ptr, ptr @pools, align 8
  store ptr %8, ptr %3, align 8
  br label %9

9:                                                ; preds = %20, %1
  %10 = load ptr, ptr %3, align 8
  %11 = icmp ne ptr %10, null
  br i1 %11, label %12, label %18

12:                                               ; preds = %9
  %13 = load ptr, ptr %3, align 8
  %14 = getelementptr inbounds %struct.threadpool_list, ptr %13, i32 0, i32 0
  %15 = load ptr, ptr %14, align 8
  %16 = load ptr, ptr %2, align 8
  %17 = icmp ne ptr %15, %16
  br label %18

18:                                               ; preds = %12, %9
  %19 = phi i1 [ false, %9 ], [ %17, %12 ]
  br i1 %19, label %20, label %25

20:                                               ; preds = %18
  %21 = load ptr, ptr %3, align 8
  store ptr %21, ptr %4, align 8
  %22 = load ptr, ptr %3, align 8
  %23 = getelementptr inbounds %struct.threadpool_list, ptr %22, i32 0, i32 1
  %24 = load ptr, ptr %23, align 8
  store ptr %24, ptr %3, align 8
  br label %9

25:                                               ; preds = %18
  %26 = load ptr, ptr %3, align 8
  %27 = icmp ne ptr %26, null
  br i1 %27, label %30, label %28

28:                                               ; preds = %25
  %29 = call i32 @pthread_mutex_unlock(ptr noundef @pools_lock) #8
  br label %65

30:                                               ; preds = %25
  %31 = load ptr, ptr %4, align 8
  %32 = icmp ne ptr %31, null
  br i1 %32, label %33, label %39

33:                                               ; preds = %30
  %34 = load ptr, ptr %3, align 8
  %35 = getelementptr inbounds %struct.threadpool_list, ptr %34, i32 0, i32 1
  %36 = load ptr, ptr %35, align 8
  %37 = load ptr, ptr %4, align 8
  %38 = getelementptr inbounds %struct.threadpool_list, ptr %37, i32 0, i32 1
  store ptr %36, ptr %38, align 8
  br label %39

39:                                               ; preds = %33, %30
  %40 = load ptr, ptr %3, align 8
  %41 = load ptr, ptr @pools, align 8
  %42 = icmp eq ptr %40, %41
  br i1 %42, label %43, label %47

43:                                               ; preds = %39
  %44 = load ptr, ptr %3, align 8
  %45 = getelementptr inbounds %struct.threadpool_list, ptr %44, i32 0, i32 1
  %46 = load ptr, ptr %45, align 8
  store ptr %46, ptr @pools, align 8
  br label %47

47:                                               ; preds = %43, %39
  %48 = load ptr, ptr %3, align 8
  call void @free(ptr noundef %48) #8
  %49 = load ptr, ptr %2, align 8
  %50 = getelementptr inbounds %struct.threadpool_tag, ptr %49, i32 0, i32 13
  %51 = load ptr, ptr %50, align 8
  store ptr %51, ptr %5, align 8
  br label %52

52:                                               ; preds = %55, %47
  %53 = load ptr, ptr %5, align 8
  %54 = icmp ne ptr %53, null
  br i1 %54, label %55, label %61

55:                                               ; preds = %52
  %56 = load ptr, ptr %5, align 8
  store ptr %56, ptr %6, align 8
  %57 = load ptr, ptr %5, align 8
  %58 = getelementptr inbounds %struct.task_desc, ptr %57, i32 0, i32 4
  %59 = load ptr, ptr %58, align 8
  store ptr %59, ptr %5, align 8
  %60 = load ptr, ptr %6, align 8
  call void @free(ptr noundef %60) #8
  br label %52

61:                                               ; preds = %52
  %62 = load ptr, ptr %2, align 8
  %63 = getelementptr inbounds %struct.threadpool_tag, ptr %62, i32 0, i32 13
  store ptr null, ptr %63, align 8
  %64 = call i32 @pthread_mutex_unlock(ptr noundef @pools_lock) #8
  br label %65

65:                                               ; preds = %61, %28
  ret void
}

; Function Attrs: nounwind uwtable
define dso_local void @thrmgr_destroy(ptr noundef %0) #0 {
  %2 = alloca ptr, align 8
  store ptr %0, ptr %2, align 8
  %3 = load ptr, ptr %2, align 8
  %4 = icmp ne ptr %3, null
  br i1 %4, label %6, label %5

5:                                                ; preds = %1
  br label %95

6:                                                ; preds = %1
  %7 = load ptr, ptr %2, align 8
  %8 = getelementptr inbounds %struct.threadpool_tag, ptr %7, i32 0, i32 0
  %9 = call i32 @pthread_mutex_lock(ptr noundef %8) #8
  %10 = icmp ne i32 %9, 0
  br i1 %10, label %11, label %13

11:                                               ; preds = %6
  %12 = call i32 (i32, ptr, ...) @logg(i32 noundef 5, ptr noundef @.str.18)
  call void @exit(i32 noundef -1) #10
  unreachable

13:                                               ; preds = %6
  %14 = load ptr, ptr %2, align 8
  %15 = getelementptr inbounds %struct.threadpool_tag, ptr %14, i32 0, i32 6
  %16 = load i32, ptr %15, align 8
  %17 = icmp ne i32 %16, 1
  br i1 %17, label %18, label %26

18:                                               ; preds = %13
  %19 = load ptr, ptr %2, align 8
  %20 = getelementptr inbounds %struct.threadpool_tag, ptr %19, i32 0, i32 0
  %21 = call i32 @pthread_mutex_unlock(ptr noundef %20) #8
  %22 = icmp ne i32 %21, 0
  br i1 %22, label %23, label %25

23:                                               ; preds = %18
  %24 = call i32 (i32, ptr, ...) @logg(i32 noundef 5, ptr noundef @.str.19)
  call void @exit(i32 noundef -1) #10
  unreachable

25:                                               ; preds = %18
  br label %95

26:                                               ; preds = %13
  %27 = load ptr, ptr %2, align 8
  %28 = getelementptr inbounds %struct.threadpool_tag, ptr %27, i32 0, i32 6
  store i32 2, ptr %28, align 8
  %29 = load ptr, ptr %2, align 8
  %30 = getelementptr inbounds %struct.threadpool_tag, ptr %29, i32 0, i32 9
  %31 = load i32, ptr %30, align 4
  %32 = icmp sgt i32 %31, 0
  br i1 %32, label %33, label %43

33:                                               ; preds = %26
  %34 = load ptr, ptr %2, align 8
  %35 = getelementptr inbounds %struct.threadpool_tag, ptr %34, i32 0, i32 1
  %36 = call i32 @pthread_cond_broadcast(ptr noundef %35) #8
  %37 = icmp ne i32 %36, 0
  br i1 %37, label %38, label %42

38:                                               ; preds = %33
  %39 = load ptr, ptr %2, align 8
  %40 = getelementptr inbounds %struct.threadpool_tag, ptr %39, i32 0, i32 0
  %41 = call i32 @pthread_mutex_unlock(ptr noundef %40) #8
  br label %95

42:                                               ; preds = %33
  br label %43

43:                                               ; preds = %42, %26
  br label %44

44:                                               ; preds = %60, %43
  %45 = load ptr, ptr %2, align 8
  %46 = getelementptr inbounds %struct.threadpool_tag, ptr %45, i32 0, i32 9
  %47 = load i32, ptr %46, align 4
  %48 = icmp sgt i32 %47, 0
  br i1 %48, label %49, label %61

49:                                               ; preds = %44
  %50 = load ptr, ptr %2, align 8
  %51 = getelementptr inbounds %struct.threadpool_tag, ptr %50, i32 0, i32 1
  %52 = load ptr, ptr %2, align 8
  %53 = getelementptr inbounds %struct.threadpool_tag, ptr %52, i32 0, i32 0
  %54 = call i32 @pthread_cond_wait(ptr noundef %51, ptr noundef %53)
  %55 = icmp ne i32 %54, 0
  br i1 %55, label %56, label %60

56:                                               ; preds = %49
  %57 = load ptr, ptr %2, align 8
  %58 = getelementptr inbounds %struct.threadpool_tag, ptr %57, i32 0, i32 0
  %59 = call i32 @pthread_mutex_unlock(ptr noundef %58) #8
  br label %95

60:                                               ; preds = %49
  br label %44

61:                                               ; preds = %44
  %62 = load ptr, ptr %2, align 8
  call void @remove_frompools(ptr noundef %62)
  %63 = load ptr, ptr %2, align 8
  %64 = getelementptr inbounds %struct.threadpool_tag, ptr %63, i32 0, i32 0
  %65 = call i32 @pthread_mutex_unlock(ptr noundef %64) #8
  %66 = icmp ne i32 %65, 0
  br i1 %66, label %67, label %69

67:                                               ; preds = %61
  %68 = call i32 (i32, ptr, ...) @logg(i32 noundef 5, ptr noundef @.str.19)
  call void @exit(i32 noundef -1) #10
  unreachable

69:                                               ; preds = %61
  %70 = load ptr, ptr %2, align 8
  %71 = getelementptr inbounds %struct.threadpool_tag, ptr %70, i32 0, i32 0
  %72 = call i32 @pthread_mutex_destroy(ptr noundef %71) #8
  %73 = load ptr, ptr %2, align 8
  %74 = getelementptr inbounds %struct.threadpool_tag, ptr %73, i32 0, i32 3
  %75 = call i32 @pthread_cond_destroy(ptr noundef %74) #8
  %76 = load ptr, ptr %2, align 8
  %77 = getelementptr inbounds %struct.threadpool_tag, ptr %76, i32 0, i32 4
  %78 = call i32 @pthread_cond_destroy(ptr noundef %77) #8
  %79 = load ptr, ptr %2, align 8
  %80 = getelementptr inbounds %struct.threadpool_tag, ptr %79, i32 0, i32 5
  %81 = call i32 @pthread_cond_destroy(ptr noundef %80) #8
  %82 = load ptr, ptr %2, align 8
  %83 = getelementptr inbounds %struct.threadpool_tag, ptr %82, i32 0, i32 1
  %84 = call i32 @pthread_cond_destroy(ptr noundef %83) #8
  %85 = load ptr, ptr %2, align 8
  %86 = getelementptr inbounds %struct.threadpool_tag, ptr %85, i32 0, i32 2
  %87 = call i32 @pthread_attr_destroy(ptr noundef %86) #8
  %88 = load ptr, ptr %2, align 8
  %89 = getelementptr inbounds %struct.threadpool_tag, ptr %88, i32 0, i32 16
  %90 = load ptr, ptr %89, align 8
  call void @free(ptr noundef %90) #8
  %91 = load ptr, ptr %2, align 8
  %92 = getelementptr inbounds %struct.threadpool_tag, ptr %91, i32 0, i32 15
  %93 = load ptr, ptr %92, align 8
  call void @free(ptr noundef %93) #8
  %94 = load ptr, ptr %2, align 8
  call void @free(ptr noundef %94) #8
  br label %95

95:                                               ; preds = %69, %56, %38, %25, %5
  ret void
}