; Function Attrs: nounwind uwtable
define dso_local void @thrmgr_destroy(ptr noundef %0) local_unnamed_addr #0 {
  %.not = icmp eq ptr %0, null
  br i1 %.not, label %67, label %2

2:                                                ; preds = %1
  %3 = tail call i32 @pthread_mutex_lock(ptr noundef nonnull %0) #12
  %.not23 = icmp eq i32 %3, 0
  br i1 %.not23, label %6, label %4

4:                                                ; preds = %2
  %5 = tail call i32 (i32, ptr, ...) @logg(i32 noundef 5, ptr noundef nonnull @.str.18) #12
  tail call void @exit(i32 noundef -1) #14
  unreachable

6:                                                ; preds = %2
  %7 = getelementptr inbounds i8, ptr %0, i64 288
  %8 = load i32, ptr %7, align 8
  %.not24 = icmp eq i32 %8, 1
  br i1 %.not24, label %13, label %9

9:                                                ; preds = %6
  %10 = tail call i32 @pthread_mutex_unlock(ptr noundef nonnull %0) #12
  %.not28 = icmp eq i32 %10, 0
  br i1 %.not28, label %67, label %11

11:                                               ; preds = %9
  %12 = tail call i32 (i32, ptr, ...) @logg(i32 noundef 5, ptr noundef nonnull @.str.19) #12
  tail call void @exit(i32 noundef -1) #14
  unreachable

13:                                               ; preds = %6
  store i32 2, ptr %7, align 8
  %14 = getelementptr inbounds i8, ptr %0, i64 300
  %15 = load i32, ptr %14, align 4
  %16 = icmp sgt i32 %15, 0
  br i1 %16, label %17, label %22

17:                                               ; preds = %13
  %18 = getelementptr inbounds i8, ptr %0, i64 40
  %19 = tail call i32 @pthread_cond_broadcast(ptr noundef nonnull %18) #12
  %.not25 = icmp eq i32 %19, 0
  br i1 %.not25, label %22, label %20

20:                                               ; preds = %17
  %21 = tail call i32 @pthread_mutex_unlock(ptr noundef nonnull %0) #12
  br label %67

22:                                               ; preds = %17, %13
  %23 = getelementptr inbounds i8, ptr %0, i64 40
  br label %24

24:                                               ; preds = %27, %22
  %25 = load i32, ptr %14, align 4
  %26 = icmp sgt i32 %25, 0
  br i1 %26, label %27, label %31

27:                                               ; preds = %24
  %28 = tail call i32 @pthread_cond_wait(ptr noundef nonnull %23, ptr noundef nonnull %0) #12
  %.not27 = icmp eq i32 %28, 0
  br i1 %.not27, label %24, label %29

29:                                               ; preds = %27
  %30 = tail call i32 @pthread_mutex_unlock(ptr noundef nonnull %0) #12
  br label %67

31:                                               ; preds = %24
  %32 = tail call i32 @pthread_mutex_lock(ptr noundef nonnull @pools_lock) #12
  %.026.i = load ptr, ptr @pools, align 8
  %.not27.i = icmp eq ptr %.026.i, null
  br i1 %.not27.i, label %remove_frompools.exit, label %.lr.ph.i.preheader

.lr.ph.i.preheader:                               ; preds = %31
  %33 = load ptr, ptr %.026.i, align 8
  %.not20.i31 = icmp eq ptr %33, %0
  br i1 %.not20.i31, label %.thread, label %.lr.ph

.lr.ph.i:                                         ; preds = %.lr.ph
  %34 = load ptr, ptr %.0.i, align 8
  %.not20.i = icmp eq ptr %34, %0
  br i1 %.not20.i, label %36, label %.lr.ph

.lr.ph:                                           ; preds = %.lr.ph.i.preheader, %.lr.ph.i
  %.029.i32 = phi ptr [ %.0.i, %.lr.ph.i ], [ %.026.i, %.lr.ph.i.preheader ]
  %35 = getelementptr inbounds i8, ptr %.029.i32, i64 8
  %.0.i = load ptr, ptr %35, align 8
  %.not.i = icmp eq ptr %.0.i, null
  br i1 %.not.i, label %remove_frompools.exit, label %.lr.ph.i

36:                                               ; preds = %.lr.ph.i
  %37 = getelementptr inbounds i8, ptr %.0.i, i64 8
  %38 = load ptr, ptr %37, align 8
  %39 = getelementptr inbounds i8, ptr %.029.i32, i64 8
  store ptr %38, ptr %39, align 8
  %40 = icmp eq ptr %.0.i, %.026.i
  br i1 %40, label %.thread, label %43

.thread:                                          ; preds = %.lr.ph.i.preheader, %36
  %.029.i.lcssa3942 = phi ptr [ %.0.i, %36 ], [ %.026.i, %.lr.ph.i.preheader ]
  %41 = getelementptr inbounds i8, ptr %.026.i, i64 8
  %42 = load ptr, ptr %41, align 8
  store ptr %42, ptr @pools, align 8
  br label %43

43:                                               ; preds = %.thread, %36
  %.029.i.lcssa3941 = phi ptr [ %.029.i.lcssa3942, %.thread ], [ %.0.i, %36 ]
  tail call void @free(ptr noundef nonnull %.029.i.lcssa3941) #12
  %44 = getelementptr inbounds i8, ptr %0, i64 320
  %45 = load ptr, ptr %44, align 8
  %.not2230.i = icmp eq ptr %45, null
  br i1 %.not2230.i, label %._crit_edge.i, label %.lr.ph32.i

.lr.ph32.i:                                       ; preds = %43, %.lr.ph32.i
  %.01831.i = phi ptr [ %47, %.lr.ph32.i ], [ %45, %43 ]
  %46 = getelementptr inbounds i8, ptr %.01831.i, i64 40
  %47 = load ptr, ptr %46, align 8
  tail call void @free(ptr noundef nonnull %.01831.i) #12
  %.not22.i = icmp eq ptr %47, null
  br i1 %.not22.i, label %._crit_edge.i, label %.lr.ph32.i

._crit_edge.i:                                    ; preds = %.lr.ph32.i, %43
  store ptr null, ptr %44, align 8
  br label %remove_frompools.exit

remove_frompools.exit:                            ; preds = %.lr.ph, %31, %._crit_edge.i
  %48 = tail call i32 @pthread_mutex_unlock(ptr noundef nonnull @pools_lock) #12
  %49 = tail call i32 @pthread_mutex_unlock(ptr noundef %0) #12
  %.not26 = icmp eq i32 %49, 0
  br i1 %.not26, label %52, label %50

50:                                               ; preds = %remove_frompools.exit
  %51 = tail call i32 (i32, ptr, ...) @logg(i32 noundef 5, ptr noundef nonnull @.str.19) #12
  tail call void @exit(i32 noundef -1) #14
  unreachable

52:                                               ; preds = %remove_frompools.exit
  %53 = tail call i32 @pthread_mutex_destroy(ptr noundef %0) #12
  %54 = getelementptr inbounds i8, ptr %0, i64 144
  %55 = tail call i32 @pthread_cond_destroy(ptr noundef nonnull %54) #12
  %56 = getelementptr inbounds i8, ptr %0, i64 192
  %57 = tail call i32 @pthread_cond_destroy(ptr noundef nonnull %56) #12
  %58 = getelementptr inbounds i8, ptr %0, i64 240
  %59 = tail call i32 @pthread_cond_destroy(ptr noundef nonnull %58) #12
  %60 = tail call i32 @pthread_cond_destroy(ptr noundef nonnull %23) #12
  %61 = getelementptr inbounds i8, ptr %0, i64 88
  %62 = tail call i32 @pthread_attr_destroy(ptr noundef nonnull %61) #12
  %63 = getelementptr inbounds i8, ptr %0, i64 344
  %64 = load ptr, ptr %63, align 8
  tail call void @free(ptr noundef %64) #12
  %65 = getelementptr inbounds i8, ptr %0, i64 336
  %66 = load ptr, ptr %65, align 8
  tail call void @free(ptr noundef %66) #12
  tail call void @free(ptr noundef %0) #12
  br label %67

67:                                               ; preds = %9, %1, %52, %29, %20
  ret void
}